target datalayout = "e-m:e-p270:32:32-p271:32:32-p272:64:64-i64:64-i128:128-f80:128-n8:16:32:64-S128"
target triple = "x86_64-pc-linux-gnu"

%struct.decode_table = type { i32, [16 x i32], [16 x i32], i32, [1024 x i8], [1024 x i16], [306 x i16] }

; Function Attrs: nounwind uwtable
define internal i32 @create_decode_tables(ptr noundef %0, ptr noundef %1, i32 noundef %2) #0 {
  %4 = alloca ptr, align 8
  %5 = alloca ptr, align 8
  %6 = alloca i32, align 4
  %7 = alloca i32, align 4
  %8 = alloca i32, align 4
  %9 = alloca i32, align 4
  %10 = alloca [16 x i32], align 16
  %11 = alloca [16 x i32], align 16
  %12 = alloca i64, align 8
  %13 = alloca i64, align 8
  %14 = alloca i8, align 1
  %15 = alloca i32, align 4
  %16 = alloca i32, align 4
  %17 = alloca i32, align 4
  %18 = alloca i32, align 4
  store ptr %0, ptr %4, align 8, !tbaa !33
  store ptr %1, ptr %5, align 8, !tbaa !148
  store i32 %2, ptr %6, align 4, !tbaa !9
  call void @llvm.lifetime.start.p0(i64 4, ptr %7) #11
  call void @llvm.lifetime.start.p0(i64 4, ptr %8) #11
  store i32 0, ptr %8, align 4, !tbaa !9
  call void @llvm.lifetime.start.p0(i64 4, ptr %9) #11
  call void @llvm.lifetime.start.p0(i64 64, ptr %10) #11
  call void @llvm.lifetime.start.p0(i64 64, ptr %11) #11
  call void @llvm.lifetime.start.p0(i64 8, ptr %12) #11
  call void @llvm.lifetime.start.p0(i64 8, ptr %13) #11
  call void @llvm.memset.p0.i64(ptr align 16 %10, i8 0, i64 64, i1 false)
  %19 = load ptr, ptr %5, align 8, !tbaa !148
  %20 = getelementptr inbounds nuw %struct.decode_table, ptr %19, i32 0, i32 6
  %21 = getelementptr inbounds [306 x i16], ptr %20, i64 0, i64 0
  call void @llvm.memset.p0.i64(ptr align 4 %21, i8 0, i64 612, i1 false)
  %22 = load i32, ptr %6, align 4, !tbaa !9
  %23 = load ptr, ptr %5, align 8, !tbaa !148
  %24 = getelementptr inbounds nuw %struct.decode_table, ptr %23, i32 0, i32 0
  store i32 %22, ptr %24, align 4, !tbaa !150
  %25 = load i32, ptr %6, align 4, !tbaa !9
  %26 = icmp eq i32 %25, 306
  %27 = select i1 %26, i32 10, i32 7
  %28 = load ptr, ptr %5, align 8, !tbaa !148
  %29 = getelementptr inbounds nuw %struct.decode_table, ptr %28, i32 0, i32 3
  store i32 %27, ptr %29, align 4, !tbaa !151
  store i32 0, ptr %9, align 4, !tbaa !9
  br label %30

30:                                               ; preds = %46, %3
  %31 = load i32, ptr %9, align 4, !tbaa !9
  %32 = load i32, ptr %6, align 4, !tbaa !9
  %33 = icmp slt i32 %31, %32
  br i1 %33, label %34, label %49

34:                                               ; preds = %30
  %35 = load ptr, ptr %4, align 8, !tbaa !33
  %36 = load i32, ptr %9, align 4, !tbaa !9
  %37 = sext i32 %36 to i64
  %38 = getelementptr inbounds i8, ptr %35, i64 %37
  %39 = load i8, ptr %38, align 1, !tbaa !75
  %40 = zext i8 %39 to i32
  %41 = and i32 %40, 15
  %42 = sext i32 %41 to i64
  %43 = getelementptr inbounds [16 x i32], ptr %10, i64 0, i64 %42
  %44 = load i32, ptr %43, align 4, !tbaa !9
  %45 = add nsw i32 %44, 1
  store i32 %45, ptr %43, align 4, !tbaa !9
  br label %46

46:                                               ; preds = %34
  %47 = load i32, ptr %9, align 4, !tbaa !9
  %48 = add nsw i32 %47, 1
  store i32 %48, ptr %9, align 4, !tbaa !9
  br label %30, !llvm.loop !152

49:                                               ; preds = %30
  %50 = getelementptr inbounds [16 x i32], ptr %10, i64 0, i64 0
  store i32 0, ptr %50, align 16, !tbaa !9
  %51 = load ptr, ptr %5, align 8, !tbaa !148
  %52 = getelementptr inbounds nuw %struct.decode_table, ptr %51, i32 0, i32 2
  %53 = getelementptr inbounds [16 x i32], ptr %52, i64 0, i64 0
  store i32 0, ptr %53, align 4, !tbaa !9
  %54 = load ptr, ptr %5, align 8, !tbaa !148
  %55 = getelementptr inbounds nuw %struct.decode_table, ptr %54, i32 0, i32 1
  %56 = getelementptr inbounds [16 x i32], ptr %55, i64 0, i64 0
  store i32 0, ptr %56, align 4, !tbaa !9
  store i32 1, ptr %9, align 4, !tbaa !9
  br label %57

57:                                               ; preds = %96, %49
  %58 = load i32, ptr %9, align 4, !tbaa !9
  %59 = icmp slt i32 %58, 16
  br i1 %59, label %60, label %99

60:                                               ; preds = %57
  %61 = load i32, ptr %9, align 4, !tbaa !9
  %62 = sext i32 %61 to i64
  %63 = getelementptr inbounds [16 x i32], ptr %10, i64 0, i64 %62
  %64 = load i32, ptr %63, align 4, !tbaa !9
  %65 = load i32, ptr %8, align 4, !tbaa !9
  %66 = add nsw i32 %65, %64
  store i32 %66, ptr %8, align 4, !tbaa !9
  %67 = load i32, ptr %8, align 4, !tbaa !9
  %68 = load i32, ptr %9, align 4, !tbaa !9
  %69 = sub nsw i32 16, %68
  %70 = shl i32 %67, %69
  %71 = load ptr, ptr %5, align 8, !tbaa !148
  %72 = getelementptr inbounds nuw %struct.decode_table, ptr %71, i32 0, i32 1
  %73 = load i32, ptr %9, align 4, !tbaa !9
  %74 = sext i32 %73 to i64
  %75 = getelementptr inbounds [16 x i32], ptr %72, i64 0, i64 %74
  store i32 %70, ptr %75, align 4, !tbaa !9
  %76 = load ptr, ptr %5, align 8, !tbaa !148
  %77 = getelementptr inbounds nuw %struct.decode_table, ptr %76, i32 0, i32 2
  %78 = load i32, ptr %9, align 4, !tbaa !9
  %79 = sub nsw i32 %78, 1
  %80 = sext i32 %79 to i64
  %81 = getelementptr inbounds [16 x i32], ptr %77, i64 0, i64 %80
  %82 = load i32, ptr %81, align 4, !tbaa !9
  %83 = load i32, ptr %9, align 4, !tbaa !9
  %84 = sub nsw i32 %83, 1
  %85 = sext i32 %84 to i64
  %86 = getelementptr inbounds [16 x i32], ptr %10, i64 0, i64 %85
  %87 = load i32, ptr %86, align 4, !tbaa !9
  %88 = add i32 %82, %87
  %89 = load ptr, ptr %5, align 8, !tbaa !148
  %90 = getelementptr inbounds nuw %struct.decode_table, ptr %89, i32 0, i32 2
  %91 = load i32, ptr %9, align 4, !tbaa !9
  %92 = sext i32 %91 to i64
  %93 = getelementptr inbounds [16 x i32], ptr %90, i64 0, i64 %92
  store i32 %88, ptr %93, align 4, !tbaa !9
  %94 = load i32, ptr %8, align 4, !tbaa !9
  %95 = shl i32 %94, 1
  store i32 %95, ptr %8, align 4, !tbaa !9
  br label %96

96:                                               ; preds = %60
  %97 = load i32, ptr %9, align 4, !tbaa !9
  %98 = add nsw i32 %97, 1
  store i32 %98, ptr %9, align 4, !tbaa !9
  br label %57, !llvm.loop !153

99:                                               ; preds = %57
  %100 = getelementptr inbounds [16 x i32], ptr %11, i64 0, i64 0
  %101 = load ptr, ptr %5, align 8, !tbaa !148
  %102 = getelementptr inbounds nuw %struct.decode_table, ptr %101, i32 0, i32 2
  %103 = getelementptr inbounds [16 x i32], ptr %102, i64 0, i64 0
  call void @llvm.memcpy.p0.p0.i64(ptr align 16 %100, ptr align 4 %103, i64 64, i1 false)
  store i32 0, ptr %9, align 4, !tbaa !9
  br label %104

104:                                              ; preds = %138, %99
  %105 = load i32, ptr %9, align 4, !tbaa !9
  %106 = load i32, ptr %6, align 4, !tbaa !9
  %107 = icmp slt i32 %105, %106
  br i1 %107, label %108, label %141

108:                                              ; preds = %104
  call void @llvm.lifetime.start.p0(i64 1, ptr %14) #11
  %109 = load ptr, ptr %4, align 8, !tbaa !33
  %110 = load i32, ptr %9, align 4, !tbaa !9
  %111 = sext i32 %110 to i64
  %112 = getelementptr inbounds i8, ptr %109, i64 %111
  %113 = load i8, ptr %112, align 1, !tbaa !75
  %114 = zext i8 %113 to i32
  %115 = and i32 %114, 15
  %116 = trunc i32 %115 to i8
  store i8 %116, ptr %14, align 1, !tbaa !75
  %117 = load i8, ptr %14, align 1, !tbaa !75
  %118 = zext i8 %117 to i32
  %119 = icmp sgt i32 %118, 0
  br i1 %119, label %120, label %137

120:                                              ; preds = %108
  call void @llvm.lifetime.start.p0(i64 4, ptr %15) #11
  %121 = load i8, ptr %14, align 1, !tbaa !75
  %122 = zext i8 %121 to i64
  %123 = getelementptr inbounds nuw [16 x i32], ptr %11, i64 0, i64 %122
  %124 = load i32, ptr %123, align 4, !tbaa !9
  store i32 %124, ptr %15, align 4, !tbaa !9
  %125 = load i32, ptr %9, align 4, !tbaa !9
  %126 = trunc i32 %125 to i16
  %127 = load ptr, ptr %5, align 8, !tbaa !148
  %128 = getelementptr inbounds nuw %struct.decode_table, ptr %127, i32 0, i32 6
  %129 = load i32, ptr %15, align 4, !tbaa !9
  %130 = sext i32 %129 to i64
  %131 = getelementptr inbounds [306 x i16], ptr %128, i64 0, i64 %130
  store i16 %126, ptr %131, align 2, !tbaa !143
  %132 = load i8, ptr %14, align 1, !tbaa !75
  %133 = zext i8 %132 to i64
  %134 = getelementptr inbounds nuw [16 x i32], ptr %11, i64 0, i64 %133
  %135 = load i32, ptr %134, align 4, !tbaa !9
  %136 = add i32 %135, 1
  store i32 %136, ptr %134, align 4, !tbaa !9
  call void @llvm.lifetime.end.p0(i64 4, ptr %15) #11
  br label %137

137:                                              ; preds = %120, %108
  call void @llvm.lifetime.end.p0(i64 1, ptr %14) #11
  br label %138

138:                                              ; preds = %137
  %139 = load i32, ptr %9, align 4, !tbaa !9
  %140 = add nsw i32 %139, 1
  store i32 %140, ptr %9, align 4, !tbaa !9
  br label %104, !llvm.loop !154

141:                                              ; preds = %104
  %142 = load ptr, ptr %5, align 8, !tbaa !148
  %143 = getelementptr inbounds nuw %struct.decode_table, ptr %142, i32 0, i32 3
  %144 = load i32, ptr %143, align 4, !tbaa !151
  %145 = zext i32 %144 to i64
  %146 = shl i64 1, %145
  store i64 %146, ptr %13, align 8, !tbaa !42
  store i64 1, ptr %12, align 8, !tbaa !42
  store i32 0, ptr %7, align 4, !tbaa !9
  br label %147

147:                                              ; preds = %229, %141
  %148 = load i32, ptr %7, align 4, !tbaa !9
  %149 = sext i32 %148 to i64
  %150 = load i64, ptr %13, align 8, !tbaa !42
  %151 = icmp slt i64 %149, %150
  br i1 %151, label %152, label %232

152:                                              ; preds = %147
  call void @llvm.lifetime.start.p0(i64 4, ptr %16) #11
  %153 = load i32, ptr %7, align 4, !tbaa !9
  %154 = load ptr, ptr %5, align 8, !tbaa !148
  %155 = getelementptr inbounds nuw %struct.decode_table, ptr %154, i32 0, i32 3
  %156 = load i32, ptr %155, align 4, !tbaa !151
  %157 = sub i32 16, %156
  %158 = shl i32 %153, %157
  store i32 %158, ptr %16, align 4, !tbaa !9
  call void @llvm.lifetime.start.p0(i64 4, ptr %17) #11
  call void @llvm.lifetime.start.p0(i64 4, ptr %18) #11
  br label %159

159:                                              ; preds = %172, %152
  %160 = load i64, ptr %12, align 8, !tbaa !42
  %161 = icmp slt i64 %160, 16
  br i1 %161, label %162, label %170

162:                                              ; preds = %159
  %163 = load i32, ptr %16, align 4, !tbaa !9
  %164 = load ptr, ptr %5, align 8, !tbaa !148
  %165 = getelementptr inbounds nuw %struct.decode_table, ptr %164, i32 0, i32 1
  %166 = load i64, ptr %12, align 8, !tbaa !42
  %167 = getelementptr inbounds [16 x i32], ptr %165, i64 0, i64 %166
  %168 = load i32, ptr %167, align 4, !tbaa !9
  %169 = icmp sge i32 %163, %168
  br label %170

170:                                              ; preds = %162, %159
  %171 = phi i1 [ false, %159 ], [ %169, %162 ]
  br i1 %171, label %172, label %175

172:                                              ; preds = %170
  %173 = load i64, ptr %12, align 8, !tbaa !42
  %174 = add nsw i64 %173, 1
  store i64 %174, ptr %12, align 8, !tbaa !42
  br label %159, !llvm.loop !155

175:                                              ; preds = %170
  %176 = load i64, ptr %12, align 8, !tbaa !42
  %177 = trunc i64 %176 to i8
  %178 = load ptr, ptr %5, align 8, !tbaa !148
  %179 = getelementptr inbounds nuw %struct.decode_table, ptr %178, i32 0, i32 4
  %180 = load i32, ptr %7, align 4, !tbaa !9
  %181 = sext i32 %180 to i64
  %182 = getelementptr inbounds [1024 x i8], ptr %179, i64 0, i64 %181
  store i8 %177, ptr %182, align 1, !tbaa !75
  %183 = load i32, ptr %16, align 4, !tbaa !9
  %184 = load ptr, ptr %5, align 8, !tbaa !148
  %185 = getelementptr inbounds nuw %struct.decode_table, ptr %184, i32 0, i32 1
  %186 = load i64, ptr %12, align 8, !tbaa !42
  %187 = sub nsw i64 %186, 1
  %188 = getelementptr inbounds [16 x i32], ptr %185, i64 0, i64 %187
  %189 = load i32, ptr %188, align 4, !tbaa !9
  %190 = sub nsw i32 %183, %189
  store i32 %190, ptr %17, align 4, !tbaa !9
  %191 = load i64, ptr %12, align 8, !tbaa !42
  %192 = sub nsw i64 16, %191
  %193 = load i32, ptr %17, align 4, !tbaa !9
  %194 = trunc i64 %192 to i32
  %195 = ashr i32 %193, %194
  store i32 %195, ptr %17, align 4, !tbaa !9
  %196 = load ptr, ptr %5, align 8, !tbaa !148
  %197 = getelementptr inbounds nuw %struct.decode_table, ptr %196, i32 0, i32 2
  %198 = load i64, ptr %12, align 8, !tbaa !42
  %199 = and i64 %198, 15
  %200 = getelementptr inbounds [16 x i32], ptr %197, i64 0, i64 %199
  %201 = load i32, ptr %200, align 4, !tbaa !9
  %202 = load i32, ptr %17, align 4, !tbaa !9
  %203 = add i32 %201, %202
  store i32 %203, ptr %18, align 4, !tbaa !9
  %204 = load i64, ptr %12, align 8, !tbaa !42
  %205 = icmp slt i64 %204, 16
  br i1 %205, label %206, label %222

206:                                              ; preds = %175
  %207 = load i32, ptr %18, align 4, !tbaa !9
  %208 = load i32, ptr %6, align 4, !tbaa !9
  %209 = icmp slt i32 %207, %208
  br i1 %209, label %210, label %222

210:                                              ; preds = %206
  %211 = load ptr, ptr %5, align 8, !tbaa !148
  %212 = getelementptr inbounds nuw %struct.decode_table, ptr %211, i32 0, i32 6
  %213 = load i32, ptr %18, align 4, !tbaa !9
  %214 = sext i32 %213 to i64
  %215 = getelementptr inbounds [306 x i16], ptr %212, i64 0, i64 %214
  %216 = load i16, ptr %215, align 2, !tbaa !143
  %217 = load ptr, ptr %5, align 8, !tbaa !148
  %218 = getelementptr inbounds nuw %struct.decode_table, ptr %217, i32 0, i32 5
  %219 = load i32, ptr %7, align 4, !tbaa !9
  %220 = sext i32 %219 to i64
  %221 = getelementptr inbounds [1024 x i16], ptr %218, i64 0, i64 %220
  store i16 %216, ptr %221, align 2, !tbaa !143
  br label %228

222:                                              ; preds = %206, %175
  %223 = load ptr, ptr %5, align 8, !tbaa !148
  %224 = getelementptr inbounds nuw %struct.decode_table, ptr %223, i32 0, i32 5
  %225 = load i32, ptr %7, align 4, !tbaa !9
  %226 = sext i32 %225 to i64
  %227 = getelementptr inbounds [1024 x i16], ptr %224, i64 0, i64 %226
  store i16 0, ptr %227, align 2, !tbaa !143
  br label %228

228:                                              ; preds = %222, %210
  call void @llvm.lifetime.end.p0(i64 4, ptr %18) #11
  call void @llvm.lifetime.end.p0(i64 4, ptr %17) #11
  call void @llvm.lifetime.end.p0(i64 4, ptr %16) #11
  br label %229

229:                                              ; preds = %228
  %230 = load i32, ptr %7, align 4, !tbaa !9
  %231 = add nsw i32 %230, 1
  store i32 %231, ptr %7, align 4, !tbaa !9
  br label %147, !llvm.loop !156

232:                                              ; preds = %147
  call void @llvm.lifetime.end.p0(i64 8, ptr %13) #11
  call void @llvm.lifetime.end.p0(i64 8, ptr %12) #11
  call void @llvm.lifetime.end.p0(i64 64, ptr %11) #11
  call void @llvm.lifetime.end.p0(i64 64, ptr %10) #11
  call void @llvm.lifetime.end.p0(i64 4, ptr %9) #11
  call void @llvm.lifetime.end.p0(i64 4, ptr %8) #11
  call void @llvm.lifetime.end.p0(i64 4, ptr %7) #11
  ret i32 0
}