; Function Attrs: nofree norecurse nosync nounwind memory(argmem: readwrite) uwtable
define internal fastcc void @create_decode_tables(ptr noundef nonnull readonly captures(none) %0, ptr noundef captures(none) initializes((0, 4), (132, 136), (3208, 3820)) %1, i32 noundef range(i32 16, 307) %2) unnamed_addr #11 {
  %4 = alloca [16 x i32], align 16
  %5 = alloca [16 x i32], align 16
  call void @llvm.lifetime.start.p0(i64 64, ptr nonnull %4) #15
  call void @llvm.lifetime.start.p0(i64 64, ptr nonnull %5) #15
  call void @llvm.memset.p0.i64(ptr noundef nonnull align 16 dereferenceable(64) %4, i8 0, i64 64, i1 false)
  %6 = getelementptr inbounds nuw i8, ptr %1, i64 3208
  tail call void @llvm.memset.p0.i64(ptr noundef nonnull align 4 dereferenceable(612) %6, i8 0, i64 612, i1 false)
  store i32 %2, ptr %1, align 4, !tbaa !113
  %7 = icmp eq i32 %2, 306
  %8 = select i1 %7, i32 10, i32 7
  %9 = getelementptr inbounds nuw i8, ptr %1, i64 132
  store i32 %8, ptr %9, align 4, !tbaa !111
  %wide.trip.count = zext nneg i32 %2 to i64
  br label %10

10:                                               ; preds = %3, %10
  %indvars.iv = phi i64 [ 0, %3 ], [ %indvars.iv.next, %10 ]
  %11 = getelementptr inbounds nuw i8, ptr %0, i64 %indvars.iv
  %12 = load i8, ptr %11, align 1, !tbaa !26
  %13 = and i8 %12, 15
  %14 = zext nneg i8 %13 to i64
  %15 = getelementptr inbounds nuw [16 x i32], ptr %4, i64 0, i64 %14
  %16 = load i32, ptr %15, align 4, !tbaa !82
  %17 = add nsw i32 %16, 1
  store i32 %17, ptr %15, align 4, !tbaa !82
  %indvars.iv.next = add nuw nsw i64 %indvars.iv, 1
  %exitcond.not = icmp eq i64 %indvars.iv.next, %wide.trip.count
  br i1 %exitcond.not, label %18, label %10, !llvm.loop !127

18:                                               ; preds = %10
  %19 = getelementptr inbounds nuw i8, ptr %1, i64 68
  store i32 0, ptr %19, align 4, !tbaa !82
  %20 = getelementptr inbounds nuw i8, ptr %1, i64 4
  store i32 0, ptr %20, align 4, !tbaa !82
  br label %21

21:                                               ; preds = %18, %21
  %22 = phi i32 [ 0, %18 ], [ %25, %21 ]
  %23 = phi i32 [ 0, %18 ], [ %31, %21 ]
  %indvars.iv90 = phi i64 [ 1, %18 ], [ %indvars.iv.next91, %21 ]
  %.06878 = phi i32 [ 0, %18 ], [ %33, %21 ]
  %24 = getelementptr inbounds nuw [16 x i32], ptr %4, i64 0, i64 %indvars.iv90
  %25 = load i32, ptr %24, align 4, !tbaa !82
  %26 = add nsw i32 %25, %.06878
  %27 = trunc i64 %indvars.iv90 to i32
  %28 = sub i32 16, %27
  %29 = shl i32 %26, %28
  %30 = getelementptr inbounds nuw [16 x i32], ptr %20, i64 0, i64 %indvars.iv90
  store i32 %29, ptr %30, align 4, !tbaa !82
  %31 = add i32 %22, %23
  %32 = getelementptr inbounds nuw [16 x i32], ptr %19, i64 0, i64 %indvars.iv90
  store i32 %31, ptr %32, align 4, !tbaa !82
  %33 = shl i32 %26, 1
  %indvars.iv.next91 = add nuw nsw i64 %indvars.iv90, 1
  %exitcond93.not = icmp eq i64 %indvars.iv.next91, 16
  br i1 %exitcond93.not, label %34, label %21, !llvm.loop !128

34:                                               ; preds = %21
  call void @llvm.memcpy.p0.p0.i64(ptr noundef nonnull align 16 dereferenceable(64) %5, ptr noundef nonnull align 4 dereferenceable(64) %19, i64 64, i1 false)
  br label %35

35:                                               ; preds = %34, %47
  %indvars.iv94 = phi i64 [ 0, %34 ], [ %indvars.iv.next95, %47 ]
  %36 = getelementptr inbounds nuw i8, ptr %0, i64 %indvars.iv94
  %37 = load i8, ptr %36, align 1, !tbaa !26
  %38 = and i8 %37, 15
  %.not75 = icmp eq i8 %38, 0
  br i1 %.not75, label %47, label %39

39:                                               ; preds = %35
  %40 = zext nneg i8 %38 to i64
  %41 = getelementptr inbounds nuw [16 x i32], ptr %5, i64 0, i64 %40
  %42 = load i32, ptr %41, align 4, !tbaa !82
  %43 = trunc i64 %indvars.iv94 to i16
  %44 = sext i32 %42 to i64
  %45 = getelementptr inbounds [306 x i16], ptr %6, i64 0, i64 %44
  store i16 %43, ptr %45, align 2, !tbaa !108
  %46 = add i32 %42, 1
  store i32 %46, ptr %41, align 4, !tbaa !82
  br label %47

47:                                               ; preds = %39, %35
  %indvars.iv.next95 = add nuw nsw i64 %indvars.iv94, 1
  %exitcond98.not = icmp eq i64 %indvars.iv.next95, %wide.trip.count
  br i1 %exitcond98.not, label %48, label %35, !llvm.loop !129

48:                                               ; preds = %47
  %49 = load i32, ptr %9, align 4, !tbaa !111
  %.not88 = icmp eq i32 %49, 63
  br i1 %.not88, label %._crit_edge, label %.lr.ph87

.lr.ph87:                                         ; preds = %48
  %50 = zext nneg i32 %49 to i64
  %51 = shl nuw i64 1, %50
  %52 = sub i32 16, %49
  %53 = getelementptr inbounds nuw i8, ptr %1, i64 136
  %54 = getelementptr inbounds nuw i8, ptr %1, i64 1160
  %smax = tail call i64 @llvm.smax.i64(i64 %51, i64 1)
  br label %55

55:                                               ; preds = %.lr.ph87, %81
  %indvars.iv100 = phi i64 [ 0, %.lr.ph87 ], [ %indvars.iv.next101, %81 ]
  %.07085 = phi i64 [ 1, %.lr.ph87 ], [ %.171.lcssa, %81 ]
  %56 = trunc nuw nsw i64 %indvars.iv100 to i32
  %57 = shl i32 %56, %52
  %58 = icmp slt i64 %.07085, 16
  br i1 %58, label %.lr.ph, label %.critedge

.lr.ph:                                           ; preds = %55, %61
  %.17180 = phi i64 [ %62, %61 ], [ %.07085, %55 ]
  %59 = getelementptr inbounds [16 x i32], ptr %20, i64 0, i64 %.17180
  %60 = load i32, ptr %59, align 4, !tbaa !82
  %.not = icmp slt i32 %57, %60
  br i1 %.not, label %.critedge, label %61

61:                                               ; preds = %.lr.ph
  %62 = add i64 %.17180, 1
  %exitcond99.not = icmp eq i64 %62, 16
  br i1 %exitcond99.not, label %.critedge, label %.lr.ph, !llvm.loop !130

.critedge:                                        ; preds = %.lr.ph, %61, %55
  %.171.lcssa = phi i64 [ %.07085, %55 ], [ 16, %61 ], [ %.17180, %.lr.ph ]
  %.lcssa = phi i1 [ false, %55 ], [ %.not, %61 ], [ %.not, %.lr.ph ]
  %63 = trunc i64 %.171.lcssa to i8
  %64 = getelementptr inbounds nuw [1024 x i8], ptr %53, i64 0, i64 %indvars.iv100
  store i8 %63, ptr %64, align 1, !tbaa !26
  %65 = add nsw i64 %.171.lcssa, -1
  %66 = getelementptr inbounds [16 x i32], ptr %20, i64 0, i64 %65
  %67 = load i32, ptr %66, align 4, !tbaa !82
  %68 = sub nsw i32 %57, %67
  %69 = trunc i64 %.171.lcssa to i32
  %70 = sub i32 16, %69
  %71 = ashr i32 %68, %70
  %72 = and i64 %.171.lcssa, 15
  %73 = getelementptr inbounds nuw [16 x i32], ptr %19, i64 0, i64 %72
  %74 = load i32, ptr %73, align 4, !tbaa !82
  %75 = add i32 %71, %74
  %76 = icmp slt i32 %75, %2
  %or.cond = select i1 %.lcssa, i1 %76, i1 false
  br i1 %or.cond, label %77, label %81

77:                                               ; preds = %.critedge
  %78 = sext i32 %75 to i64
  %79 = getelementptr inbounds [306 x i16], ptr %6, i64 0, i64 %78
  %80 = load i16, ptr %79, align 2, !tbaa !108
  br label %81

81:                                               ; preds = %.critedge, %77
  %.sink = phi i16 [ %80, %77 ], [ 0, %.critedge ]
  %82 = getelementptr inbounds nuw [1024 x i16], ptr %54, i64 0, i64 %indvars.iv100
  store i16 %.sink, ptr %82, align 2, !tbaa !108
  %indvars.iv.next101 = add nuw nsw i64 %indvars.iv100, 1
  %exitcond103.not = icmp eq i64 %indvars.iv.next101, %smax
  br i1 %exitcond103.not, label %._crit_edge, label %55, !llvm.loop !131

._crit_edge:                                      ; preds = %81, %48
  call void @llvm.lifetime.end.p0(i64 64, ptr nonnull %5) #15
  call void @llvm.lifetime.end.p0(i64 64, ptr nonnull %4) #15
  ret void
}